target datalayout = "e-m:e-p270:32:32-p271:32:32-p272:64:64-i64:64-i128:128-f80:128-n8:16:32:64-S128"
target triple = "x86_64-pc-linux-gnu"

%struct.FunctionCallInfoBaseData = type { ptr, ptr, ptr, i32, i8, i16, [0 x %struct.NullableDatum] }
%struct.NullableDatum = type { i64, i8 }
%struct.anon = type { i32, [0 x i8] }
%struct.varattrib_1b = type { i8, [0 x i8] }
%struct.varattrib_1b_e = type { i8, i8, [0 x i8] }

@.str.1 = private unnamed_addr constant [10 x i8] c"varchar.c\00", align 1
@.str.3 = private unnamed_addr constant [46 x i8] c"value too long for type character varying(%d)\00", align 1
@__func__.varchar = private unnamed_addr constant [8 x i8] c"varchar\00", align 1

; Function Attrs: inlinehint nounwind uwtable
define internal i64 @PointerGetDatum(ptr noundef %0) #2 {
  %2 = alloca ptr, align 8
  store ptr %0, ptr %2, align 8
  %3 = load ptr, ptr %2, align 8
  %4 = ptrtoint ptr %3 to i64
  ret i64 %4
}

; Function Attrs: inlinehint nounwind uwtable
define internal zeroext i1 @DatumGetBool(i64 noundef %0) #2 {
  %2 = alloca i64, align 8
  store i64 %0, ptr %2, align 8
  %3 = load i64, ptr %2, align 8
  %4 = icmp ne i64 %3, 0
  ret i1 %4
}

; Function Attrs: inlinehint nounwind uwtable
define internal i32 @DatumGetInt32(i64 noundef %0) #2 {
  %2 = alloca i64, align 8
  store i64 %0, ptr %2, align 8
  %3 = load i64, ptr %2, align 8
  %4 = trunc i64 %3 to i32
  ret i32 %4
}

; Function Attrs: inlinehint nounwind uwtable
define internal ptr @DatumGetPointer(i64 noundef %0) #2 {
  %2 = alloca i64, align 8
  store i64 %0, ptr %2, align 8
  %3 = load i64, ptr %2, align 8
  %4 = inttoptr i64 %3 to ptr
  ret ptr %4
}

; Function Attrs: nounwind uwtable
define dso_local i64 @varchar(ptr noundef %0) #0 {
  %2 = alloca i64, align 8
  %3 = alloca ptr, align 8
  %4 = alloca ptr, align 8
  %5 = alloca i32, align 4
  %6 = alloca i8, align 1
  %7 = alloca i32, align 4
  %8 = alloca i32, align 4
  %9 = alloca i64, align 8
  %10 = alloca i32, align 4
  %11 = alloca ptr, align 8
  %12 = alloca i32, align 4
  store ptr %0, ptr %3, align 8
  call void @llvm.lifetime.start.p0(i64 8, ptr %4) #8
  %13 = load ptr, ptr %3, align 8
  %14 = getelementptr inbounds nuw %struct.FunctionCallInfoBaseData, ptr %13, i32 0, i32 6
  %15 = getelementptr inbounds [0 x %struct.NullableDatum], ptr %14, i64 0, i64 0
  %16 = getelementptr inbounds nuw %struct.NullableDatum, ptr %15, i32 0, i32 0
  %17 = load i64, ptr %16, align 8
  %18 = call ptr @DatumGetPointer(i64 noundef %17)
  %19 = call ptr @pg_detoast_datum_packed(ptr noundef %18)
  store ptr %19, ptr %4, align 8
  call void @llvm.lifetime.start.p0(i64 4, ptr %5) #8
  %20 = load ptr, ptr %3, align 8
  %21 = getelementptr inbounds nuw %struct.FunctionCallInfoBaseData, ptr %20, i32 0, i32 6
  %22 = getelementptr inbounds [0 x %struct.NullableDatum], ptr %21, i64 0, i64 1
  %23 = getelementptr inbounds nuw %struct.NullableDatum, ptr %22, i32 0, i32 0
  %24 = load i64, ptr %23, align 8
  %25 = call i32 @DatumGetInt32(i64 noundef %24)
  store i32 %25, ptr %5, align 4
  call void @llvm.lifetime.start.p0(i64 1, ptr %6) #8
  %26 = load ptr, ptr %3, align 8
  %27 = getelementptr inbounds nuw %struct.FunctionCallInfoBaseData, ptr %26, i32 0, i32 6
  %28 = getelementptr inbounds [0 x %struct.NullableDatum], ptr %27, i64 0, i64 2
  %29 = getelementptr inbounds nuw %struct.NullableDatum, ptr %28, i32 0, i32 0
  %30 = load i64, ptr %29, align 8
  %31 = call zeroext i1 @DatumGetBool(i64 noundef %30)
  %32 = zext i1 %31 to i8
  store i8 %32, ptr %6, align 1
  call void @llvm.lifetime.start.p0(i64 4, ptr %7) #8
  call void @llvm.lifetime.start.p0(i64 4, ptr %8) #8
  call void @llvm.lifetime.start.p0(i64 8, ptr %9) #8
  call void @llvm.lifetime.start.p0(i64 4, ptr %10) #8
  call void @llvm.lifetime.start.p0(i64 8, ptr %11) #8
  %33 = load ptr, ptr %4, align 8
  %34 = getelementptr inbounds nuw %struct.varattrib_1b, ptr %33, i32 0, i32 0
  %35 = load i8, ptr %34, align 1
  %36 = zext i8 %35 to i32
  %37 = icmp eq i32 %36, 1
  br i1 %37, label %38, label %66

38:                                               ; preds = %1
  %39 = load ptr, ptr %4, align 8
  %40 = getelementptr inbounds nuw %struct.varattrib_1b_e, ptr %39, i32 0, i32 1
  %41 = load i8, ptr %40, align 1
  %42 = zext i8 %41 to i32
  %43 = icmp eq i32 %42, 1
  br i1 %43, label %44, label %45

44:                                               ; preds = %38
  br label %62

45:                                               ; preds = %38
  %46 = load ptr, ptr %4, align 8
  %47 = getelementptr inbounds nuw %struct.varattrib_1b_e, ptr %46, i32 0, i32 1
  %48 = load i8, ptr %47, align 1
  %49 = zext i8 %48 to i32
  %50 = and i32 %49, -2
  %51 = icmp eq i32 %50, 2
  br i1 %51, label %52, label %53

52:                                               ; preds = %45
  br label %60

53:                                               ; preds = %45
  %54 = load ptr, ptr %4, align 8
  %55 = getelementptr inbounds nuw %struct.varattrib_1b_e, ptr %54, i32 0, i32 1
  %56 = load i8, ptr %55, align 1
  %57 = zext i8 %56 to i32
  %58 = icmp eq i32 %57, 18
  %59 = select i1 %58, i64 16, i64 0
  br label %60

60:                                               ; preds = %53, %52
  %61 = phi i64 [ 8, %52 ], [ %59, %53 ]
  br label %62

62:                                               ; preds = %60, %44
  %63 = phi i64 [ 8, %44 ], [ %61, %60 ]
  %64 = add i64 2, %63
  %65 = sub i64 %64, 2
  br label %92

66:                                               ; preds = %1
  %67 = load ptr, ptr %4, align 8
  %68 = getelementptr inbounds nuw %struct.varattrib_1b, ptr %67, i32 0, i32 0
  %69 = load i8, ptr %68, align 1
  %70 = zext i8 %69 to i32
  %71 = and i32 %70, 1
  %72 = icmp eq i32 %71, 1
  br i1 %72, label %73, label %82

73:                                               ; preds = %66
  %74 = load ptr, ptr %4, align 8
  %75 = getelementptr inbounds nuw %struct.varattrib_1b, ptr %74, i32 0, i32 0
  %76 = load i8, ptr %75, align 1
  %77 = zext i8 %76 to i32
  %78 = ashr i32 %77, 1
  %79 = and i32 %78, 127
  %80 = sext i32 %79 to i64
  %81 = sub i64 %80, 1
  br label %90

82:                                               ; preds = %66
  %83 = load ptr, ptr %4, align 8
  %84 = getelementptr inbounds nuw %struct.anon, ptr %83, i32 0, i32 0
  %85 = load i32, ptr %84, align 4
  %86 = lshr i32 %85, 2
  %87 = and i32 %86, 1073741823
  %88 = sub i32 %87, 4
  %89 = zext i32 %88 to i64
  br label %90

90:                                               ; preds = %82, %73
  %91 = phi i64 [ %81, %73 ], [ %89, %82 ]
  br label %92

92:                                               ; preds = %90, %62
  %93 = phi i64 [ %65, %62 ], [ %91, %90 ]
  %94 = trunc i64 %93 to i32
  store i32 %94, ptr %7, align 4
  %95 = load ptr, ptr %4, align 8
  %96 = getelementptr inbounds nuw %struct.varattrib_1b, ptr %95, i32 0, i32 0
  %97 = load i8, ptr %96, align 1
  %98 = zext i8 %97 to i32
  %99 = and i32 %98, 1
  %100 = icmp eq i32 %99, 1
  br i1 %100, label %101, label %105

101:                                              ; preds = %92
  %102 = load ptr, ptr %4, align 8
  %103 = getelementptr inbounds nuw %struct.varattrib_1b, ptr %102, i32 0, i32 1
  %104 = getelementptr inbounds [0 x i8], ptr %103, i64 0, i64 0
  br label %109

105:                                              ; preds = %92
  %106 = load ptr, ptr %4, align 8
  %107 = getelementptr inbounds nuw %struct.anon, ptr %106, i32 0, i32 1
  %108 = getelementptr inbounds [0 x i8], ptr %107, i64 0, i64 0
  br label %109

109:                                              ; preds = %105, %101
  %110 = phi ptr [ %104, %101 ], [ %108, %105 ]
  store ptr %110, ptr %11, align 8
  %111 = load i32, ptr %5, align 4
  %112 = sub i32 %111, 4
  store i32 %112, ptr %8, align 4
  %113 = load i32, ptr %8, align 4
  %114 = icmp slt i32 %113, 0
  br i1 %114, label %119, label %115

115:                                              ; preds = %109
  %116 = load i32, ptr %7, align 4
  %117 = load i32, ptr %8, align 4
  %118 = icmp sle i32 %116, %117
  br i1 %118, label %119, label %122

119:                                              ; preds = %115, %109
  %120 = load ptr, ptr %4, align 8
  %121 = call i64 @PointerGetDatum(ptr noundef %120)
  store i64 %121, ptr %2, align 8
  store i32 1, ptr %12, align 4
  br label %169

122:                                              ; preds = %115
  %123 = load ptr, ptr %11, align 8
  %124 = load i32, ptr %7, align 4
  %125 = load i32, ptr %8, align 4
  %126 = call i32 @pg_mbcharcliplen(ptr noundef %123, i32 noundef %124, i32 noundef %125)
  %127 = sext i32 %126 to i64
  store i64 %127, ptr %9, align 8
  %128 = load i8, ptr %6, align 1, !range !6, !noundef !7
  %129 = trunc i8 %128 to i1
  br i1 %129, label %163, label %130

130:                                              ; preds = %122
  %131 = load i64, ptr %9, align 8
  %132 = trunc i64 %131 to i32
  store i32 %132, ptr %10, align 4
  br label %133

133:                                              ; preds = %159, %130
  %134 = load i32, ptr %10, align 4
  %135 = load i32, ptr %7, align 4
  %136 = icmp slt i32 %134, %135
  br i1 %136, label %137, label %162

137:                                              ; preds = %133
  %138 = load ptr, ptr %11, align 8
  %139 = load i32, ptr %10, align 4
  %140 = sext i32 %139 to i64
  %141 = getelementptr inbounds i8, ptr %138, i64 %140
  %142 = load i8, ptr %141, align 1
  %143 = sext i8 %142 to i32
  %144 = icmp ne i32 %143, 32
  br i1 %144, label %145, label %158

145:                                              ; preds = %137
  br label %146

146:                                              ; preds = %145
  br i1 true, label %147, label %149

147:                                              ; preds = %146
  %148 = call zeroext i1 @errstart_cold(i32 noundef 21, ptr noundef null) #10
  br i1 %148, label %151, label %155

149:                                              ; preds = %146
  %150 = call zeroext i1 @errstart(i32 noundef 21, ptr noundef null)
  br i1 %150, label %151, label %155

151:                                              ; preds = %149, %147
  %152 = call i32 @errcode(i32 noundef 16777346)
  %153 = load i32, ptr %8, align 4
  %154 = call i32 (ptr, ...) @errmsg(ptr noundef @.str.3, i32 noundef %153)
  call void @errfinish(ptr noundef @.str.1, i32 noundef 640, ptr noundef @__func__.varchar)
  br label %155

155:                                              ; preds = %151, %149, %147
  unreachable

156:                                              ; No predecessors!
  br label %157

157:                                              ; preds = %156
  br label %158

158:                                              ; preds = %157, %137
  br label %159

159:                                              ; preds = %158
  %160 = load i32, ptr %10, align 4
  %161 = add i32 %160, 1
  store i32 %161, ptr %10, align 4
  br label %133, !llvm.loop !11

162:                                              ; preds = %133
  br label %163

163:                                              ; preds = %162, %122
  %164 = load ptr, ptr %11, align 8
  %165 = load i64, ptr %9, align 8
  %166 = trunc i64 %165 to i32
  %167 = call ptr @cstring_to_text_with_len(ptr noundef %164, i32 noundef %166)
  %168 = call i64 @PointerGetDatum(ptr noundef %167)
  store i64 %168, ptr %2, align 8
  store i32 1, ptr %12, align 4
  br label %169

169:                                              ; preds = %163, %119
  call void @llvm.lifetime.end.p0(i64 8, ptr %11) #8
  call void @llvm.lifetime.end.p0(i64 4, ptr %10) #8
  call void @llvm.lifetime.end.p0(i64 8, ptr %9) #8
  call void @llvm.lifetime.end.p0(i64 4, ptr %8) #8
  call void @llvm.lifetime.end.p0(i64 4, ptr %7) #8
  call void @llvm.lifetime.end.p0(i64 1, ptr %6) #8
  call void @llvm.lifetime.end.p0(i64 4, ptr %5) #8
  call void @llvm.lifetime.end.p0(i64 8, ptr %4) #8
  %170 = load i64, ptr %2, align 8
  ret i64 %170
}