; Function Attrs: nounwind uwtable
define dso_local i64 @varchar(ptr noundef readonly captures(none) %0) local_unnamed_addr #0 {
  %2 = getelementptr inbounds nuw i8, ptr %0, i64 32
  %3 = load i64, ptr %2, align 8
  %4 = inttoptr i64 %3 to ptr
  %5 = tail call ptr @pg_detoast_datum_packed(ptr noundef %4) #13
  %6 = getelementptr inbounds nuw i8, ptr %0, i64 48
  %7 = load i64, ptr %6, align 8
  %8 = trunc i64 %7 to i32
  %9 = getelementptr inbounds nuw i8, ptr %0, i64 64
  %10 = load i64, ptr %9, align 8
  %.not41 = icmp eq i64 %10, 0
  %11 = load i8, ptr %5, align 1
  %12 = zext i8 %11 to i32
  %13 = icmp eq i8 %11, 1
  br i1 %13, label %14, label %23

14:                                               ; preds = %1
  %15 = getelementptr inbounds nuw i8, ptr %5, i64 1
  %16 = load i8, ptr %15, align 1
  %17 = icmp eq i8 %16, 1
  %18 = and i8 %16, -2
  %19 = icmp eq i8 %18, 2
  %or.cond = or i1 %17, %19
  %20 = icmp eq i8 %16, 18
  %21 = select i1 %20, i32 16, i32 0
  %22 = select i1 %or.cond, i32 8, i32 %21
  br label %32

23:                                               ; preds = %1
  %24 = and i32 %12, 1
  %.not = icmp eq i32 %24, 0
  br i1 %.not, label %28, label %25

25:                                               ; preds = %23
  %26 = lshr i32 %12, 1
  %27 = add nsw i32 %26, -1
  br label %32

28:                                               ; preds = %23
  %29 = load i32, ptr %5, align 4
  %30 = lshr i32 %29, 2
  %31 = add nsw i32 %30, -4
  br label %32

32:                                               ; preds = %25, %28, %14
  %33 = phi i32 [ %22, %14 ], [ %27, %25 ], [ %31, %28 ]
  %34 = and i8 %11, 1
  %.not36 = icmp eq i8 %34, 0
  %.v = select i1 %.not36, i64 4, i64 1
  %35 = getelementptr inbounds nuw i8, ptr %5, i64 %.v
  %36 = add i32 %8, -4
  %37 = icmp sgt i32 %36, -1
  %.not37 = icmp sgt i32 %33, %36
  %or.cond40 = select i1 %37, i1 %.not37, i1 false
  br i1 %or.cond40, label %38, label %50

38:                                               ; preds = %32
  %39 = tail call i32 @pg_mbcharcliplen(ptr noundef nonnull %35, i32 noundef %33, i32 noundef %36) #13
  %40 = icmp slt i32 %39, %33
  %or.cond43 = select i1 %.not41, i1 %40, i1 false
  br i1 %or.cond43, label %.lr.ph.preheader, label %.loopexit

.lr.ph.preheader:                                 ; preds = %38
  %41 = sext i32 %39 to i64
  br label %.lr.ph

42:                                               ; preds = %.lr.ph
  %indvars.iv.next = add nsw i64 %indvars.iv, 1
  %lftr.wideiv = trunc i64 %indvars.iv.next to i32
  %exitcond.not = icmp eq i32 %33, %lftr.wideiv
  br i1 %exitcond.not, label %.loopexit, label %.lr.ph, !llvm.loop !11

.lr.ph:                                           ; preds = %.lr.ph.preheader, %42
  %indvars.iv = phi i64 [ %41, %.lr.ph.preheader ], [ %indvars.iv.next, %42 ]
  %43 = getelementptr inbounds i8, ptr %35, i64 %indvars.iv
  %44 = load i8, ptr %43, align 1
  %.not38 = icmp eq i8 %44, 32
  br i1 %.not38, label %42, label %45

45:                                               ; preds = %.lr.ph
  %46 = tail call zeroext i1 @errstart_cold(i32 noundef 21, ptr noundef null) #14
  tail call void @llvm.assume(i1 %46)
  %47 = tail call i32 @errcode(i32 noundef 16777346) #13
  %48 = tail call i32 (ptr, ...) @errmsg(ptr noundef nonnull @.str.3, i32 noundef %36) #13
  tail call void @errfinish(ptr noundef nonnull @.str.1, i32 noundef 640, ptr noundef nonnull @__func__.varchar) #13
  unreachable

.loopexit:                                        ; preds = %42, %38
  %49 = tail call ptr @cstring_to_text_with_len(ptr noundef nonnull %35, i32 noundef %39) #13
  br label %50

50:                                               ; preds = %32, %.loopexit
  %.0.in = phi ptr [ %49, %.loopexit ], [ %5, %32 ]
  %.0 = ptrtoint ptr %.0.in to i64
  ret i64 %.0
}